ccopy_reg
_reconstructor
p0
(cregression
TestTable
p1
c__builtin__
object
p2
Ntp3
Rp4
(dp5
S'table'
p6
(dp7
S'rev_old'
p8
(lp9
g0
(cregression
Test
p10
g2
Ntp11
Rp12
(dp13
S'test_cases'
p14
(lp15
g0
(cregression
TestCase
p16
g2
Ntp17
Rp18
(dp19
S'opt'
p20
S'-O2'
p21
sS'arch'
p22
S'x86-64'
p23
sS'target'
p24
S'generic-32'
p25
sS'result'
p26
g0
(cregression
TestResult
p27
g2
Ntp28
Rp29
(dp30
S'compfailed'
p31
I0
sS'runfailed'
p32
I0
sbsbag0
(g16
g2
Ntp33
Rp34
(dp35
g20
S'-O0'
p36
sg22
g23
sg24
S'sse2-i32x4'
p37
sg26
g0
(g27
g2
Ntp38
Rp39
(dp40
g31
I0
sg32
I1
sbsbasS'name'
p41
S'test2'
p42
sbag0
(g10
g2
Ntp43
Rp44
(dp45
g14
(lp46
g0
(g16
g2
Ntp47
Rp48
(dp49
g20
g21
sg22
S'x86'
p50
sg24
g25
sg26
g0
(g27
g2
Ntp51
Rp52
(dp53
g31
I0
sg32
I0
sbsbag0
(g16
g2
Ntp54
Rp55
(dp56
g20
g36
sg22
g23
sg24
g25
sg26
g0
(g27
g2
Ntp57
Rp58
(dp59
g31
I0
sg32
I0
sbsbag0
(g16
g2
Ntp60
Rp61
(dp62
g20
g36
sg22
g23
sg24
g37
sg26
g0
(g27
g2
Ntp63
Rp64
(dp65
g31
I0
sg32
I1
sbsbasg41
S'test3'
p66
sbag0
(g10
g2
Ntp67
Rp68
(dp69
g14
(lp70
g0
(g16
g2
Ntp71
Rp72
(dp73
g20
g21
sg22
g50
sg24
S'generic-64'
p74
sg26
g0
(g27
g2
Ntp75
Rp76
(dp77
g31
I0
sg32
I0
sbsbag0
(g16
g2
Ntp78
Rp79
(dp80
g20
g36
sg22
g50
sg24
g74
sg26
g0
(g27
g2
Ntp81
Rp82
(dp83
g31
I0
sg32
I1
sbsbag0
(g16
g2
Ntp84
Rp85
(dp86
g20
g21
sg22
g50
sg24
g25
sg26
g0
(g27
g2
Ntp87
Rp88
(dp89
g31
I1
sg32
I0
sbsbasg41
S'test4'
p90
sbag0
(g10
g2
Ntp91
Rp92
(dp93
g14
(lp94
g0
(g16
g2
Ntp95
Rp96
(dp97
g20
g36
sg22
g23
sg24
g74
sg26
g0
(g27
g2
Ntp98
Rp99
(dp100
g31
I0
sg32
I1
sbsbasg41
S'test0'
p101
sbasS'rev_new'
p102
(lp103
g0
(g10
g2
Ntp104
Rp105
(dp106
g14
(lp107
g0
(g16
g2
Ntp108
Rp109
(dp110
g20
g21
sg22
g23
sg24
g25
sg26
g0
(g27
g2
Ntp111
Rp112
(dp113
g31
I0
sg32
I1
sbsbasg41
g42
sbag0
(g10
g2
Ntp114
Rp115
(dp116
g14
(lp117
g0
(g16
g2
Ntp118
Rp119
(dp120
g20
g21
sg22
g50
sg24
g25
sg26
g0
(g27
g2
Ntp121
Rp122
(dp123
g31
I0
sg32
I1
sbsbag0
(g16
g2
Ntp124
Rp125
(dp126
g20
g36
sg22
g23
sg24
g25
sg26
g0
(g27
g2
Ntp127
Rp128
(dp129
g31
I0
sg32
I1
sbsbasg41
g66
sbag0
(g10
g2
Ntp130
Rp131
(dp132
g14
(lp133
g0
(g16
g2
Ntp134
Rp135
(dp136
g20
g21
sg22
g50
sg24
g74
sg26
g0
(g27
g2
Ntp137
Rp138
(dp139
g31
I0
sg32
I1
sbsbag0
(g16
g2
Ntp140
Rp141
(dp142
g20
g36
sg22
g23
sg24
g37
sg26
g0
(g27
g2
Ntp143
Rp144
(dp145
g31
I1
sg32
I0
sbsbasg41
g90
sbag0
(g10
g2
Ntp146
Rp147
(dp148
g14
(lp149
g0
(g16
g2
Ntp150
Rp151
(dp152
g20
g36
sg22
g23
sg24
g74
sg26
g0
(g27
g2
Ntp153
Rp154
(dp155
g31
I1
sg32
I0
sbsbag0
(g16
g2
Ntp156
Rp157
(dp158
g20
g21
sg22
g50
sg24
g74
sg26
g0
(g27
g2
Ntp159
Rp160
(dp161
g31
I0
sg32
I1
sbsbasg41
g101
sbassb.