ccopy_reg
_reconstructor
p0
(cregression
TestTable
p1
c__builtin__
object
p2
Ntp3
Rp4
(dp5
S'table'
p6
(dp7
S'rev_intersect'
p8
(lp9
g0
(cregression
Test
p10
g2
Ntp11
Rp12
(dp13
S'test_cases'
p14
(lp15
g0
(cregression
TestCase
p16
g2
Ntp17
Rp18
(dp19
S'opt'
p20
S'-O2'
p21
sS'arch'
p22
S'x86'
p23
sS'target'
p24
S'knc'
p25
sS'result'
p26
g0
(cregression
TestResult
p27
g2
Ntp28
Rp29
(dp30
S'compfailed'
p31
I0
sS'runfailed'
p32
I1
sbsbag0
(g16
g2
Ntp33
Rp34
(dp35
g20
S'-O0'
p36
sg22
S'x86-64'
p37
sg24
S'sse2-i32x4'
p38
sg26
g0
(g27
g2
Ntp39
Rp40
(dp41
g31
I0
sg32
I1
sbsbasS'name'
p42
S'test4'
p43
sbag0
(g10
g2
Ntp44
Rp45
(dp46
g14
(lp47
g0
(g16
g2
Ntp48
Rp49
(dp50
g20
g21
sg22
g37
sg24
S'generic-32'
p51
sg26
g0
(g27
g2
Ntp52
Rp53
(dp54
g31
I1
sg32
I0
sbsbag0
(g16
g2
Ntp55
Rp56
(dp57
g20
g21
sg22
g37
sg24
g25
sg26
g0
(g27
g2
Ntp58
Rp59
(dp60
g31
I1
sg32
I0
sbsbasg42
S'test1'
p61
sbag0
(g10
g2
Ntp62
Rp63
(dp64
g14
(lp65
g0
(g16
g2
Ntp66
Rp67
(dp68
g20
g21
sg22
g37
sg24
S'generic-64'
p69
sg26
g0
(g27
g2
Ntp70
Rp71
(dp72
g31
I0
sg32
I1
sbsbasg42
S'test0'
p73
sbag0
(g10
g2
Ntp74
Rp75
(dp76
g14
(lp77
g0
(g16
g2
Ntp78
Rp79
(dp80
g20
g21
sg22
g23
sg24
g69
sg26
g0
(g27
g2
Ntp81
Rp82
(dp83
g31
I0
sg32
I1
sbsbag0
(g16
g2
Ntp84
Rp85
(dp86
g20
g21
sg22
g23
sg24
g51
sg26
g0
(g27
g2
Ntp87
Rp88
(dp89
g31
I1
sg32
I0
sbsbag0
(g16
g2
Ntp90
Rp91
(dp92
g20
g21
sg22
g23
sg24
g38
sg26
g0
(g27
g2
Ntp93
Rp94
(dp95
g31
I0
sg32
I1
sbsbag0
(g16
g2
Ntp96
Rp97
(dp98
g20
g36
sg22
g23
sg24
g69
sg26
g0
(g27
g2
Ntp99
Rp100
(dp101
g31
I1
sg32
I0
sbsbag0
(g16
g2
Ntp102
Rp103
(dp104
g20
g36
sg22
g23
sg24
g38
sg26
g0
(g27
g2
Ntp105
Rp106
(dp107
g31
I1
sg32
I0
sbsbasg42
S'test3'
p108
sbasS'rev_old'
p109
(lp110
g0
(g10
g2
Ntp111
Rp112
(dp113
g14
(lp114
g0
(g16
g2
Ntp115
Rp116
(dp117
g20
g21
sg22
g23
sg24
g25
sg26
g0
(g27
g2
Ntp118
Rp119
(dp120
g31
I0
sg32
I1
sbsbag0
(g16
g2
Ntp121
Rp122
(dp123
g20
g36
sg22
g37
sg24
g38
sg26
g0
(g27
g2
Ntp124
Rp125
(dp126
g31
I0
sg32
I1
sbsbag0
(g16
g2
Ntp127
Rp128
(dp129
g20
g36
sg22
g23
sg24
g38
sg26
g0
(g27
g2
Ntp130
Rp131
(dp132
g31
I1
sg32
I0
sbsbag0
(g16
g2
Ntp133
Rp134
(dp135
g20
g21
sg22
g37
sg24
g51
sg26
g0
(g27
g2
Ntp136
Rp137
(dp138
g31
I0
sg32
I1
sbsbag0
(g16
g2
Ntp139
Rp140
(dp141
g20
g36
sg22
g23
sg24
g69
sg26
g0
(g27
g2
Ntp142
Rp143
(dp144
g31
I0
sg32
I1
sbsbag0
(g16
g2
Ntp145
Rp146
(dp147
g20
g21
sg22
g23
sg24
g69
sg26
g0
(g27
g2
Ntp148
Rp149
(dp150
g31
I0
sg32
I1
sbsbasg42
g43
sbag0
(g10
g2
Ntp151
Rp152
(dp153
g14
(lp154
g0
(g16
g2
Ntp155
Rp156
(dp157
g20
g21
sg22
g37
sg24
g51
sg26
g0
(g27
g2
Ntp158
Rp159
(dp160
g31
I1
sg32
I0
sbsbag0
(g16
g2
Ntp161
Rp162
(dp163
g20
g21
sg22
g37
sg24
g25
sg26
g0
(g27
g2
Ntp164
Rp165
(dp166
g31
I1
sg32
I0
sbsbasg42
g61
sbag0
(g10
g2
Ntp167
Rp168
(dp169
g14
(lp170
g0
(g16
g2
Ntp171
Rp172
(dp173
g20
g21
sg22
g37
sg24
g69
sg26
g0
(g27
g2
Ntp174
Rp175
(dp176
g31
I0
sg32
I1
sbsbag0
(g16
g2
Ntp177
Rp178
(dp179
g20
g21
sg22
g37
sg24
g69
sg26
g0
(g27
g2
Ntp180
Rp181
(dp182
g31
I1
sg32
I0
sbsbasg42
g73
sbag0
(g10
g2
Ntp183
Rp184
(dp185
g14
(lp186
g0
(g16
g2
Ntp187
Rp188
(dp189
g20
g21
sg22
g23
sg24
g69
sg26
g0
(g27
g2
Ntp190
Rp191
(dp192
g31
I0
sg32
I1
sbsbag0
(g16
g2
Ntp193
Rp194
(dp195
g20
g21
sg22
g23
sg24
g51
sg26
g0
(g27
g2
Ntp196
Rp197
(dp198
g31
I1
sg32
I0
sbsbag0
(g16
g2
Ntp199
Rp200
(dp201
g20
g21
sg22
g23
sg24
g38
sg26
g0
(g27
g2
Ntp202
Rp203
(dp204
g31
I0
sg32
I1
sbsbag0
(g16
g2
Ntp205
Rp206
(dp207
g20
g36
sg22
g23
sg24
g69
sg26
g0
(g27
g2
Ntp208
Rp209
(dp210
g31
I1
sg32
I0
sbsbag0
(g16
g2
Ntp211
Rp212
(dp213
g20
g36
sg22
g23
sg24
g38
sg26
g0
(g27
g2
Ntp214
Rp215
(dp216
g31
I1
sg32
I0
sbsbag0
(g16
g2
Ntp217
Rp218
(dp219
g20
g36
sg22
g37
sg24
g51
sg26
g0
(g27
g2
Ntp220
Rp221
(dp222
g31
I0
sg32
I1
sbsbag0
(g16
g2
Ntp223
Rp224
(dp225
g20
g21
sg22
g37
sg24
g51
sg26
g0
(g27
g2
Ntp226
Rp227
(dp228
g31
I0
sg32
I1
sbsbag0
(g16
g2
Ntp229
Rp230
(dp231
g20
g21
sg22
g37
sg24
g38
sg26
g0
(g27
g2
Ntp232
Rp233
(dp234
g31
I1
sg32
I0
sbsbasg42
g108
sbag0
(g10
g2
Ntp235
Rp236
(dp237
g14
(lp238
g0
(g16
g2
Ntp239
Rp240
(dp241
g20
g36
sg22
g37
sg24
g51
sg26
g0
(g27
g2
Ntp242
Rp243
(dp244
g31
I1
sg32
I0
sbsbag0
(g16
g2
Ntp245
Rp246
(dp247
g20
g36
sg22
g23
sg24
g69
sg26
g0
(g27
g2
Ntp248
Rp249
(dp250
g31
I1
sg32
I0
sbsbasg42
S'test2'
p251
sbasS'rev_new'
p252
(lp253
g0
(g10
g2
Ntp254
Rp255
(dp256
g14
(lp257
g0
(g16
g2
Ntp258
Rp259
(dp260
g20
g21
sg22
g23
sg24
g25
sg26
g0
(g27
g2
Ntp261
Rp262
(dp263
g31
I0
sg32
I1
sbsbag0
(g16
g2
Ntp264
Rp265
(dp266
g20
g36
sg22
g37
sg24
g38
sg26
g0
(g27
g2
Ntp267
Rp268
(dp269
g31
I0
sg32
I1
sbsbag0
(g16
g2
Ntp270
Rp271
(dp272
g20
g36
sg22
g37
sg24
g69
sg26
g0
(g27
g2
Ntp273
Rp274
(dp275
g31
I0
sg32
I1
sbsbag0
(g16
g2
Ntp276
Rp277
(dp278
g20
g21
sg22
g37
sg24
g38
sg26
g0
(g27
g2
Ntp279
Rp280
(dp281
g31
I0
sg32
I1
sbsbag0
(g16
g2
Ntp282
Rp283
(dp284
g20
g21
sg22
g23
sg24
g25
sg26
g0
(g27
g2
Ntp285
Rp286
(dp287
g31
I0
sg32
I1
sbsbag0
(g16
g2
Ntp288
Rp289
(dp290
g20
g36
sg22
g23
sg24
g38
sg26
g0
(g27
g2
Ntp291
Rp292
(dp293
g31
I0
sg32
I1
sbsbag0
(g16
g2
Ntp294
Rp295
(dp296
g20
g21
sg22
g37
sg24
g51
sg26
g0
(g27
g2
Ntp297
Rp298
(dp299
g31
I1
sg32
I0
sbsbag0
(g16
g2
Ntp300
Rp301
(dp302
g20
g36
sg22
g23
sg24
g38
sg26
g0
(g27
g2
Ntp303
Rp304
(dp305
g31
I0
sg32
I1
sbsbasg42
g43
sbag0
(g10
g2
Ntp306
Rp307
(dp308
g14
(lp309
g0
(g16
g2
Ntp310
Rp311
(dp312
g20
g21
sg22
g37
sg24
g51
sg26
g0
(g27
g2
Ntp313
Rp314
(dp315
g31
I1
sg32
I0
sbsbag0
(g16
g2
Ntp316
Rp317
(dp318
g20
g21
sg22
g37
sg24
g25
sg26
g0
(g27
g2
Ntp319
Rp320
(dp321
g31
I1
sg32
I0
sbsbag0
(g16
g2
Ntp322
Rp323
(dp324
g20
g36
sg22
g23
sg24
g38
sg26
g0
(g27
g2
Ntp325
Rp326
(dp327
g31
I0
sg32
I1
sbsbasg42
g61
sbag0
(g10
g2
Ntp328
Rp329
(dp330
g14
(lp331
g0
(g16
g2
Ntp332
Rp333
(dp334
g20
g21
sg22
g37
sg24
g69
sg26
g0
(g27
g2
Ntp335
Rp336
(dp337
g31
I0
sg32
I1
sbsbag0
(g16
g2
Ntp338
Rp339
(dp340
g20
g36
sg22
g37
sg24
g25
sg26
g0
(g27
g2
Ntp341
Rp342
(dp343
g31
I0
sg32
I1
sbsbasg42
g73
sbag0
(g10
g2
Ntp344
Rp345
(dp346
g14
(lp347
g0
(g16
g2
Ntp348
Rp349
(dp350
g20
g21
sg22
g23
sg24
g69
sg26
g0
(g27
g2
Ntp351
Rp352
(dp353
g31
I0
sg32
I1
sbsbag0
(g16
g2
Ntp354
Rp355
(dp356
g20
g21
sg22
g23
sg24
g51
sg26
g0
(g27
g2
Ntp357
Rp358
(dp359
g31
I1
sg32
I0
sbsbag0
(g16
g2
Ntp360
Rp361
(dp362
g20
g21
sg22
g23
sg24
g38
sg26
g0
(g27
g2
Ntp363
Rp364
(dp365
g31
I0
sg32
I1
sbsbag0
(g16
g2
Ntp366
Rp367
(dp368
g20
g36
sg22
g23
sg24
g69
sg26
g0
(g27
g2
Ntp369
Rp370
(dp371
g31
I1
sg32
I0
sbsbag0
(g16
g2
Ntp372
Rp373
(dp374
g20
g36
sg22
g23
sg24
g38
sg26
g0
(g27
g2
Ntp375
Rp376
(dp377
g31
I1
sg32
I0
sbsbag0
(g16
g2
Ntp378
Rp379
(dp380
g20
g36
sg22
g37
sg24
g38
sg26
g0
(g27
g2
Ntp381
Rp382
(dp383
g31
I1
sg32
I0
sbsbag0
(g16
g2
Ntp384
Rp385
(dp386
g20
g21
sg22
g23
sg24
g51
sg26
g0
(g27
g2
Ntp387
Rp388
(dp389
g31
I1
sg32
I0
sbsbag0
(g16
g2
Ntp390
Rp391
(dp392
g20
g21
sg22
g37
sg24
g25
sg26
g0
(g27
g2
Ntp393
Rp394
(dp395
g31
I1
sg32
I0
sbsbasg42
g108
sbag0
(g10
g2
Ntp396
Rp397
(dp398
g14
(lp399
g0
(g16
g2
Ntp400
Rp401
(dp402
g20
g36
sg22
g23
sg24
g69
sg26
g0
(g27
g2
Ntp403
Rp404
(dp405
g31
I1
sg32
I0
sbsbag0
(g16
g2
Ntp406
Rp407
(dp408
g20
g21
sg22
g37
sg24
g51
sg26
g0
(g27
g2
Ntp409
Rp410
(dp411
g31
I0
sg32
I1
sbsbag0
(g16
g2
Ntp412
Rp413
(dp414
g20
g21
sg22
g23
sg24
g51
sg26
g0
(g27
g2
Ntp415
Rp416
(dp417
g31
I1
sg32
I0
sbsbag0
(g16
g2
Ntp418
Rp419
(dp420
g20
g36
sg22
g37
sg24
g51
sg26
g0
(g27
g2
Ntp421
Rp422
(dp423
g31
I1
sg32
I0
sbsbasg42
g251
sbassb.