(lp0
ccopy_reg
_reconstructor
p1
(cregression
ExecutionStatGatherer
p2
c__builtin__
object
p3
Ntp4
Rp5
(dp6
S'test_table'
p7
g1
(cregression
TestTable
p8
g3
Ntp9
Rp10
(dp11
S'table'
p12
(dp13
S'x86-64'
p14
(dp15
S'-O2'
p16
(dp17
S'sse2-i32x4'
p18
(lp19
g1
(cregression
Test
p20
g3
Ntp21
Rp22
(dp23
S'skipped'
p24
I0
sS'compfailed'
p25
I1
sS'name'
p26
S'test2'
p27
sS'runfailed'
p28
I0
sbag1
(g20
g3
Ntp29
Rp30
(dp31
g24
I0
sg25
I0
sg26
S'test1'
p32
sg28
I1
sbag1
(g20
g3
Ntp33
Rp34
(dp35
g24
I0
sg25
I1
sg26
S'test0'
p36
sg28
I0
sbasS'generic-64'
p37
(lp38
g1
(g20
g3
Ntp39
Rp40
(dp41
g24
I0
sg25
I0
sg26
g27
sg28
I1
sbasS'knc'
p42
(lp43
g1
(g20
g3
Ntp44
Rp45
(dp46
g24
I0
sg25
I0
sg26
S'test4'
p47
sg28
I1
sbag1
(g20
g3
Ntp48
Rp49
(dp50
g24
I1
sg25
I0
sg26
g32
sg28
I0
sbassS'-O0'
p51
(dp52
g18
(lp53
g1
(g20
g3
Ntp54
Rp55
(dp56
g24
I0
sg25
I0
sg26
g36
sg28
I1
sbasg37
(lp57
g1
(g20
g3
Ntp58
Rp59
(dp60
g24
I1
sg25
I0
sg26
g32
sg28
I0
sbag1
(g20
g3
Ntp61
Rp62
(dp63
g24
I0
sg25
I0
sg26
g47
sg28
I1
sbasssS'x86'
p64
(dp65
g16
(dp66
S'generic-32'
p67
(lp68
g1
(g20
g3
Ntp69
Rp70
(dp71
g24
I1
sg25
I0
sg26
g27
sg28
I0
sbasg42
(lp72
g1
(g20
g3
Ntp73
Rp74
(dp75
g24
I0
sg25
I0
sg26
g47
sg28
I1
sbag1
(g20
g3
Ntp76
Rp77
(dp78
g24
I0
sg25
I1
sg26
g32
sg28
I0
sbassg51
(dp79
g18
(lp80
g1
(g20
g3
Ntp81
Rp82
(dp83
g24
I0
sg25
I0
sg26
g32
sg28
I1
sbag1
(g20
g3
Ntp84
Rp85
(dp86
g24
I0
sg25
I0
sg26
g47
sg28
I1
sbasg67
(lp87
g1
(g20
g3
Ntp88
Rp89
(dp90
g24
I0
sg25
I1
sg26
g32
sg28
I0
sbag1
(g20
g3
Ntp91
Rp92
(dp93
g24
I0
sg25
I1
sg26
g47
sg28
I0
sbasg37
(lp94
g1
(g20
g3
Ntp95
Rp96
(dp97
g24
I1
sg25
I0
sg26
g47
sg28
I0
sbasg42
(lp98
g1
(g20
g3
Ntp99
Rp100
(dp101
g24
I0
sg25
I1
sg26
g47
sg28
I0
sbag1
(g20
g3
Ntp102
Rp103
(dp104
g24
I0
sg25
I0
sg26
S'test3'
p105
sg28
I1
sbag1
(g20
g3
Ntp106
Rp107
(dp108
g24
I0
sg25
I0
sg26
g27
sg28
I1
sbassssbsS'tests_skipped'
p109
I4
sS'tests_failed'
p110
I10
sS'tests_succeed'
p111
I0
sS'tests_comperr'
p112
I6
sS'tests_total'
p113
I0
sS'tests_completed'
p114
I20
sS'revision'
p115
S''
p116
sbag1
(g2
g3
Ntp117
Rp118
(dp119
g7
g1
(g8
g3
Ntp120
Rp121
(dp122
g12
(dp123
g14
(dp124
g16
(dp125
g18
(lp126
g1
(g20
g3
Ntp127
Rp128
(dp129
g24
I0
sg25
I1
sg26
g27
sg28
I0
sbag1
(g20
g3
Ntp130
Rp131
(dp132
g24
I0
sg25
I0
sg26
g32
sg28
I1
sbag1
(g20
g3
Ntp133
Rp134
(dp135
g24
I0
sg25
I1
sg26
g36
sg28
I0
sbag1
(g20
g3
Ntp136
Rp137
(dp138
g24
I1
sg25
I0
sg26
g105
sg28
I0
sbasg42
(lp139
g1
(g20
g3
Ntp140
Rp141
(dp142
g24
I0
sg25
I0
sg26
g47
sg28
I1
sbag1
(g20
g3
Ntp143
Rp144
(dp145
g24
I0
sg25
I1
sg26
g105
sg28
I0
sbag1
(g20
g3
Ntp146
Rp147
(dp148
g24
I1
sg25
I0
sg26
g105
sg28
I0
sbassg51
(dp149
g18
(lp150
g1
(g20
g3
Ntp151
Rp152
(dp153
g24
I1
sg25
I0
sg26
g32
sg28
I0
sbag1
(g20
g3
Ntp154
Rp155
(dp156
g24
I1
sg25
I0
sg26
g36
sg28
I0
sbag1
(g20
g3
Ntp157
Rp158
(dp159
g24
I0
sg25
I1
sg26
g47
sg28
I0
sbag1
(g20
g3
Ntp160
Rp161
(dp162
g24
I0
sg25
I1
sg26
g36
sg28
I0
sbasg37
(lp163
g1
(g20
g3
Ntp164
Rp165
(dp166
g24
I1
sg25
I0
sg26
g32
sg28
I0
sbasg42
(lp167
g1
(g20
g3
Ntp168
Rp169
(dp170
g24
I1
sg25
I0
sg26
g27
sg28
I0
sbag1
(g20
g3
Ntp171
Rp172
(dp173
g24
I0
sg25
I1
sg26
g36
sg28
I0
sbasssg64
(dp174
g16
(dp175
g67
(lp176
g1
(g20
g3
Ntp177
Rp178
(dp179
g24
I1
sg25
I0
sg26
g105
sg28
I0
sbasg37
(lp180
g1
(g20
g3
Ntp181
Rp182
(dp183
g24
I1
sg25
I0
sg26
g32
sg28
I0
sbasg42
(lp184
g1
(g20
g3
Ntp185
Rp186
(dp187
g24
I0
sg25
I0
sg26
g47
sg28
I1
sbassg51
(dp188
g18
(lp189
g1
(g20
g3
Ntp190
Rp191
(dp192
g24
I0
sg25
I0
sg26
g32
sg28
I1
sbasg67
(lp193
g1
(g20
g3
Ntp194
Rp195
(dp196
g24
I0
sg25
I1
sg26
g47
sg28
I0
sbasg37
(lp197
g1
(g20
g3
Ntp198
Rp199
(dp200
g24
I1
sg25
I0
sg26
g47
sg28
I0
sbasg42
(lp201
g1
(g20
g3
Ntp202
Rp203
(dp204
g24
I0
sg25
I1
sg26
g47
sg28
I0
sbag1
(g20
g3
Ntp205
Rp206
(dp207
g24
I0
sg25
I0
sg26
g105
sg28
I1
sbag1
(g20
g3
Ntp208
Rp209
(dp210
g24
I0
sg25
I1
sg26
g36
sg28
I0
sbassssbsg109
I10
sg110
I5
sg111
I0
sg112
I10
sg113
I0
sg114
I25
sg115
g116
sbag1
(g2
g3
Ntp211
Rp212
(dp213
g7
g1
(g8
g3
Ntp214
Rp215
(dp216
g12
(dp217
g14
(dp218
g16
(dp219
g18
(lp220
g1
(g20
g3
Ntp221
Rp222
(dp223
g24
I0
sg25
I1
sg26
g27
sg28
I0
sbag1
(g20
g3
Ntp224
Rp225
(dp226
g24
I0
sg25
I0
sg26
g32
sg28
I1
sbag1
(g20
g3
Ntp227
Rp228
(dp229
g24
I0
sg25
I1
sg26
g36
sg28
I0
sbasg42
(lp230
g1
(g20
g3
Ntp231
Rp232
(dp233
g24
I0
sg25
I0
sg26
g47
sg28
I1
sbassg51
(dp234
g37
(lp235
g1
(g20
g3
Ntp236
Rp237
(dp238
g24
I1
sg25
I0
sg26
g32
sg28
I0
sbasssg64
(dp239
g16
(dp240
g42
(lp241
g1
(g20
g3
Ntp242
Rp243
(dp244
g24
I0
sg25
I0
sg26
g47
sg28
I1
sbassg51
(dp245
g18
(lp246
g1
(g20
g3
Ntp247
Rp248
(dp249
g24
I0
sg25
I0
sg26
g32
sg28
I1
sbasg37
(lp250
g1
(g20
g3
Ntp251
Rp252
(dp253
g24
I1
sg25
I0
sg26
g47
sg28
I0
sbasg42
(lp254
g1
(g20
g3
Ntp255
Rp256
(dp257
g24
I0
sg25
I1
sg26
g47
sg28
I0
sbag1
(g20
g3
Ntp258
Rp259
(dp260
g24
I0
sg25
I0
sg26
g105
sg28
I1
sbassssbsg109
I2
sg110
I5
sg111
I0
sg112
I3
sg113
I0
sg114
I10
sg115
g116
sba.